; Function Attrs: nounwind uwtable
define void @Map_Var4Test() local_unnamed_addr #0 {
  %1 = alloca ptr, align 8
  %2 = alloca ptr, align 8
  %3 = alloca ptr, align 8
  %4 = alloca ptr, align 8
  %5 = alloca ptr, align 8
  %6 = alloca i32, align 4
  call void @llvm.lifetime.start.p0(i64 8, ptr nonnull %1) #6
  call void @llvm.lifetime.start.p0(i64 8, ptr nonnull %2) #6
  call void @llvm.lifetime.start.p0(i64 8, ptr nonnull %3) #6
  call void @llvm.lifetime.start.p0(i64 8, ptr nonnull %4) #6
  call void @llvm.lifetime.start.p0(i64 8, ptr nonnull %5) #6
  call void @llvm.lifetime.start.p0(i64 4, ptr nonnull %6) #6
  call void @Extra_Truth4VarN(ptr noundef nonnull %1, ptr noundef nonnull %2, ptr noundef nonnull %3, i32 noundef 16) #6
  br label %7

7:                                                ; preds = %0, %7
  %.03 = phi i32 [ 0, %0 ], [ %9, %7 ]
  store i32 %.03, ptr %6, align 4, !tbaa !8
  %8 = call fastcc i32 @Extra_TruthCanonN_rec(i32 noundef 4, ptr noundef nonnull %6, ptr noundef nonnull %4, ptr noundef nonnull %5, i32 noundef 0)
  %9 = add nuw nsw i32 %.03, 1
  %exitcond.not = icmp eq i32 %9, 65536
  br i1 %exitcond.not, label %10, label %7, !llvm.loop !29

10:                                               ; preds = %7
  call void @llvm.lifetime.end.p0(i64 4, ptr nonnull %6) #6
  call void @llvm.lifetime.end.p0(i64 8, ptr nonnull %5) #6
  call void @llvm.lifetime.end.p0(i64 8, ptr nonnull %4) #6
  call void @llvm.lifetime.end.p0(i64 8, ptr nonnull %3) #6
  call void @llvm.lifetime.end.p0(i64 8, ptr nonnull %2) #6
  call void @llvm.lifetime.end.p0(i64 8, ptr nonnull %1) #6
  ret void
}